target datalayout = "e-m:e-p270:32:32-p271:32:32-p272:64:64-i64:64-i128:128-f80:128-n8:16:32:64-S128"
target triple = "x86_64-unknown-linux-gnu"

@taskstats_seqnum = internal global i32 0, section ".data..percpu", align 4

; Function Attrs: fn_ret_thunk_extern nounwind null_pointer_is_valid
define internal fastcc noundef i32 @prepare_reply(ptr noundef readonly %0, i8 noundef zeroext %1, ptr nocapture noundef writeonly %2, i64 noundef %3) unnamed_addr #0 align 16 {
  %5 = trunc i64 %3 to i32
  %6 = add i32 %5, 7
  %7 = and i32 %6, 8188
  %8 = add nuw nsw i32 %7, 19
  %9 = and i32 %8, 8188
  %10 = tail call ptr @__alloc_skb(i32 noundef %9, i32 noundef 3264, i32 noundef 0, i32 noundef -1) #10
  %11 = icmp eq ptr %10, null
  br i1 %11, label %27, label %12

12:                                               ; preds = %4
  %13 = icmp eq ptr %0, null
  br i1 %13, label %14, label %17

14:                                               ; preds = %12
  %15 = tail call i32 asm sideeffect "xaddl $0, %gs:$1", "=r,=*m,0,*m,~{memory},~{dirflag},~{fpsr},~{flags}"(ptr nonnull elementtype(i32) @taskstats_seqnum, i32 1, ptr nonnull elementtype(i32) @taskstats_seqnum) #10, !srcloc !8
  %16 = tail call ptr @genlmsg_put(ptr noundef nonnull %10, i32 noundef 0, i32 noundef %15, ptr noundef nonnull @family, i32 noundef 0, i8 noundef zeroext %1) #10
  br label %22

17:                                               ; preds = %12
  %18 = getelementptr inbounds i8, ptr %0, i64 4
  %19 = load i32, ptr %18, align 4
  %20 = load i32, ptr %0, align 8
  %21 = tail call ptr @genlmsg_put(ptr noundef nonnull %10, i32 noundef %19, i32 noundef %20, ptr noundef nonnull @family, i32 noundef 0, i8 noundef zeroext %1) #10
  br label %22

22:                                               ; preds = %17, %14
  %23 = phi ptr [ %21, %17 ], [ %16, %14 ]
  %24 = icmp eq ptr %23, null
  br i1 %24, label %25, label %26

25:                                               ; preds = %22
  tail call void @kfree_skb_reason(ptr noundef nonnull %10, i32 noundef 2) #10
  br label %27

26:                                               ; preds = %22
  store ptr %10, ptr %2, align 8
  br label %27

27:                                               ; preds = %26, %25, %4
  %28 = phi i32 [ -22, %25 ], [ 0, %26 ], [ -12, %4 ]
  ret i32 %28
}

; Function Attrs: fn_ret_thunk_extern nounwind null_pointer_is_valid
define internal i32 @cgroupstats_user_cmd(ptr nocapture readnone %0, ptr noundef %1) #0 align 16 {
  %3 = alloca ptr, align 8
  call void @llvm.lifetime.start.p0(i64 8, ptr nonnull %3) #10
  store ptr null, ptr %3, align 8, !annotation !19
  %4 = getelementptr inbounds i8, ptr %1, i64 32
  %5 = load ptr, ptr %4, align 8
  %6 = getelementptr i8, ptr %5, i64 8
  %7 = load ptr, ptr %6, align 8
  %8 = icmp eq ptr %7, null
  br i1 %8, label %57, label %9

9:                                                ; preds = %2
  %10 = getelementptr i8, ptr %7, i64 4
  %11 = load i32, ptr %10, align 4
  %12 = tail call i64 @__fdget(i32 noundef %11) #10
  %13 = and i64 %12, -4
  %14 = inttoptr i64 %13 to ptr
  %15 = icmp eq i64 %13, 0
  br i1 %15, label %57, label %16

16:                                               ; preds = %9
  %17 = call fastcc i32 @prepare_reply(ptr noundef %1, i8 noundef zeroext 5, ptr noundef nonnull %3, i64 noundef 44), !range !20
  %18 = icmp slt i32 %17, 0
  br i1 %18, label %52, label %19

19:                                               ; preds = %16
  %20 = load ptr, ptr %3, align 8
  %21 = tail call ptr @nla_reserve(ptr noundef %20, i32 noundef 1, i32 noundef 40) #10
  %22 = icmp eq ptr %21, null
  br i1 %22, label %23, label %24

23:                                               ; preds = %19
  tail call void @kfree_skb_reason(ptr noundef %20, i32 noundef 2) #10
  br label %52

24:                                               ; preds = %19
  %25 = getelementptr i8, ptr %21, i64 4
  tail call void @llvm.memset.p0.i64(ptr noundef align 8 dereferenceable(40) %25, i8 0, i64 40, i1 false)
  %26 = getelementptr inbounds i8, ptr %14, i64 160
  %27 = load ptr, ptr %26, align 8
  %28 = tail call i32 @cgroupstats_build(ptr noundef %25, ptr noundef %27) #10
  %29 = icmp slt i32 %28, 0
  br i1 %29, label %30, label %31

30:                                               ; preds = %24
  tail call void @kfree_skb_reason(ptr noundef %20, i32 noundef 2) #10
  br label %52

31:                                               ; preds = %24
  %32 = getelementptr inbounds i8, ptr %20, i64 200
  %33 = load ptr, ptr %32, align 8
  %34 = getelementptr inbounds i8, ptr %20, i64 192
  %35 = load ptr, ptr %34, align 8
  %36 = getelementptr inbounds i8, ptr %20, i64 184
  %37 = load i32, ptr %36, align 8
  %38 = zext i32 %37 to i64
  %39 = getelementptr i8, ptr %35, i64 %38
  %40 = ptrtoint ptr %39 to i64
  %41 = ptrtoint ptr %33 to i64
  %42 = sub i64 %40, %41
  %43 = trunc i64 %42 to i32
  store i32 %43, ptr %33, align 4
  %44 = getelementptr inbounds i8, ptr %1, i64 40
  %45 = load ptr, ptr %44, align 8
  %46 = getelementptr inbounds i8, ptr %1, i64 4
  %47 = load i32, ptr %46, align 4
  %48 = getelementptr inbounds i8, ptr %45, i64 280
  %49 = load ptr, ptr %48, align 8
  %50 = tail call i32 @netlink_unicast(ptr noundef %49, ptr noundef %20, i32 noundef %47, i32 noundef 64) #10
  %51 = tail call i32 @llvm.smin.i32(i32 %50, i32 0)
  br label %52

52:                                               ; preds = %31, %30, %23, %16
  %53 = phi i32 [ %17, %16 ], [ -90, %23 ], [ %28, %30 ], [ %51, %31 ]
  %54 = and i64 %12, 1
  %55 = icmp eq i64 %54, 0
  br i1 %55, label %57, label %56

56:                                               ; preds = %52
  tail call void @fput(ptr noundef nonnull %14) #10
  br label %57

57:                                               ; preds = %56, %52, %9, %2
  %58 = phi i32 [ -22, %2 ], [ 0, %9 ], [ %53, %52 ], [ %53, %56 ]
  call void @llvm.lifetime.end.p0(i64 8, ptr nonnull %3) #10
  ret i32 %58
}