; Function Attrs: fn_ret_thunk_extern nounwind null_pointer_is_valid
define internal i32 @cgroupstats_user_cmd(ptr nocapture readnone %0, ptr noundef readonly %1) #0 align 16 {
  %3 = getelementptr inbounds i8, ptr %1, i64 32
  %4 = load ptr, ptr %3, align 8
  %5 = getelementptr i8, ptr %4, i64 8
  %6 = load ptr, ptr %5, align 8
  %7 = icmp eq ptr %6, null
  br i1 %7, label %67, label %8

8:                                                ; preds = %2
  %9 = getelementptr i8, ptr %6, i64 4
  %10 = load i32, ptr %9, align 4
  %11 = tail call i64 @__fdget(i32 noundef %10) #10
  %12 = and i64 %11, -4
  %13 = inttoptr i64 %12 to ptr
  %14 = icmp eq i64 %12, 0
  br i1 %14, label %67, label %15

15:                                               ; preds = %8
  %16 = tail call ptr @__alloc_skb(i32 noundef 64, i32 noundef 3264, i32 noundef 0, i32 noundef -1) #10
  %17 = icmp eq ptr %16, null
  br i1 %17, label %prepare_reply.exit.thread, label %18

18:                                               ; preds = %15
  %19 = icmp eq ptr %1, null
  br i1 %19, label %20, label %23

20:                                               ; preds = %18
  %21 = tail call i32 asm sideeffect "xaddl $0, %gs:$1", "=r,=*m,0,*m,~{memory},~{dirflag},~{fpsr},~{flags}"(ptr nonnull elementtype(i32) @taskstats_seqnum, i32 1, ptr nonnull elementtype(i32) @taskstats_seqnum) #10, !srcloc !8
  %22 = tail call ptr @genlmsg_put(ptr noundef nonnull %16, i32 noundef 0, i32 noundef %21, ptr noundef nonnull @family, i32 noundef 0, i8 noundef zeroext 5) #10
  br label %28

23:                                               ; preds = %18
  %24 = getelementptr inbounds i8, ptr %1, i64 4
  %25 = load i32, ptr %24, align 4
  %26 = load i32, ptr %1, align 8
  %27 = tail call ptr @genlmsg_put(ptr noundef nonnull %16, i32 noundef %25, i32 noundef %26, ptr noundef nonnull @family, i32 noundef 0, i8 noundef zeroext 5) #10
  br label %28

28:                                               ; preds = %23, %20
  %29 = phi ptr [ %27, %23 ], [ %22, %20 ]
  %30 = icmp eq ptr %29, null
  br i1 %30, label %31, label %prepare_reply.exit

31:                                               ; preds = %28
  tail call void @kfree_skb_reason(ptr noundef nonnull %16, i32 noundef 2) #10
  br label %prepare_reply.exit.thread

prepare_reply.exit:                               ; preds = %28
  %32 = tail call ptr @nla_reserve(ptr noundef nonnull %16, i32 noundef 1, i32 noundef 40) #10
  %33 = icmp eq ptr %32, null
  br i1 %33, label %34, label %35

34:                                               ; preds = %prepare_reply.exit
  tail call void @kfree_skb_reason(ptr noundef nonnull %16, i32 noundef 2) #10
  br label %prepare_reply.exit.thread

35:                                               ; preds = %prepare_reply.exit
  %36 = getelementptr i8, ptr %32, i64 4
  tail call void @llvm.memset.p0.i64(ptr noundef align 8 dereferenceable(40) %36, i8 0, i64 40, i1 false)
  %37 = getelementptr inbounds i8, ptr %13, i64 160
  %38 = load ptr, ptr %37, align 8
  %39 = tail call i32 @cgroupstats_build(ptr noundef %36, ptr noundef %38) #10
  %40 = icmp slt i32 %39, 0
  br i1 %40, label %41, label %42

41:                                               ; preds = %35
  tail call void @kfree_skb_reason(ptr noundef nonnull %16, i32 noundef 2) #10
  br label %prepare_reply.exit.thread

42:                                               ; preds = %35
  %43 = getelementptr inbounds i8, ptr %16, i64 200
  %44 = load ptr, ptr %43, align 8
  %45 = getelementptr inbounds i8, ptr %16, i64 192
  %46 = load ptr, ptr %45, align 8
  %47 = getelementptr inbounds i8, ptr %16, i64 184
  %48 = load i32, ptr %47, align 8
  %49 = zext i32 %48 to i64
  %50 = getelementptr i8, ptr %46, i64 %49
  %51 = ptrtoint ptr %50 to i64
  %52 = ptrtoint ptr %44 to i64
  %53 = sub i64 %51, %52
  %54 = trunc i64 %53 to i32
  store i32 %54, ptr %44, align 4
  %55 = getelementptr inbounds i8, ptr %1, i64 40
  %56 = load ptr, ptr %55, align 8
  %57 = getelementptr inbounds i8, ptr %1, i64 4
  %58 = load i32, ptr %57, align 4
  %59 = getelementptr inbounds i8, ptr %56, i64 280
  %60 = load ptr, ptr %59, align 8
  %61 = tail call i32 @netlink_unicast(ptr noundef %60, ptr noundef nonnull %16, i32 noundef %58, i32 noundef 64) #10
  %62 = tail call i32 @llvm.smin.i32(i32 %61, i32 0)
  br label %prepare_reply.exit.thread

prepare_reply.exit.thread:                        ; preds = %15, %31, %42, %41, %34
  %63 = phi i32 [ -90, %34 ], [ %39, %41 ], [ %62, %42 ], [ -12, %15 ], [ -22, %31 ]
  %64 = and i64 %11, 1
  %65 = icmp eq i64 %64, 0
  br i1 %65, label %67, label %66

66:                                               ; preds = %prepare_reply.exit.thread
  tail call void @fput(ptr noundef nonnull %13) #10
  br label %67

67:                                               ; preds = %66, %prepare_reply.exit.thread, %8, %2
  %68 = phi i32 [ -22, %2 ], [ 0, %8 ], [ %63, %prepare_reply.exit.thread ], [ %63, %66 ]
  ret i32 %68
}